target datalayout = "e-m:e-p270:32:32-p271:32:32-p272:64:64-i64:64-i128:128-f80:128-n8:16:32:64-S128"
target triple = "x86_64-pc-linux-gnu"

%struct.Vec_Int_t_ = type { i32, i32, ptr }

@.str = private unnamed_addr constant [9 x i8] c"(%d,%d) \00", align 1

; Function Attrs: inlinehint nounwind uwtable
define internal i32 @Vec_IntEntry(ptr noundef %0, i32 noundef %1) #2 {
  %3 = alloca ptr, align 8
  %4 = alloca i32, align 4
  store ptr %0, ptr %3, align 8, !tbaa !20
  store i32 %1, ptr %4, align 4, !tbaa !3
  %5 = load ptr, ptr %3, align 8, !tbaa !20
  %6 = getelementptr inbounds nuw %struct.Vec_Int_t_, ptr %5, i32 0, i32 2
  %7 = load ptr, ptr %6, align 8, !tbaa !27
  %8 = load i32, ptr %4, align 4, !tbaa !3
  %9 = sext i32 %8 to i64
  %10 = getelementptr inbounds i32, ptr %7, i64 %9
  %11 = load i32, ptr %10, align 4, !tbaa !3
  ret i32 %11
}

; Function Attrs: inlinehint nounwind uwtable
define internal i32 @Vec_IntSize(ptr noundef %0) #2 {
  %2 = alloca ptr, align 8
  store ptr %0, ptr %2, align 8, !tbaa !20
  %3 = load ptr, ptr %2, align 8, !tbaa !20
  %4 = getelementptr inbounds nuw %struct.Vec_Int_t_, ptr %3, i32 0, i32 1
  %5 = load i32, ptr %4, align 4, !tbaa !22
  ret i32 %5
}

; Function Attrs: nounwind uwtable
define i32 @Sim_UtilCountPairsOnePrint(ptr noundef %0, ptr noundef %1) #0 {
  %3 = alloca ptr, align 8
  %4 = alloca ptr, align 8
  %5 = alloca i32, align 4
  %6 = alloca i32, align 4
  %7 = alloca i32, align 4
  %8 = alloca i32, align 4
  store ptr %0, ptr %3, align 8, !tbaa !94
  store ptr %1, ptr %4, align 8, !tbaa !20
  call void @llvm.lifetime.start.p0(i64 4, ptr %5) #8
  call void @llvm.lifetime.start.p0(i64 4, ptr %6) #8
  call void @llvm.lifetime.start.p0(i64 4, ptr %7) #8
  call void @llvm.lifetime.start.p0(i64 4, ptr %8) #8
  store i32 0, ptr %7, align 4, !tbaa !3
  br label %9

9:                                                ; preds = %49, %2
  %10 = load i32, ptr %7, align 4, !tbaa !3
  %11 = load ptr, ptr %4, align 8, !tbaa !20
  %12 = call i32 @Vec_IntSize(ptr noundef %11)
  %13 = icmp slt i32 %10, %12
  br i1 %13, label %14, label %18

14:                                               ; preds = %9
  %15 = load ptr, ptr %4, align 8, !tbaa !20
  %16 = load i32, ptr %7, align 4, !tbaa !3
  %17 = call i32 @Vec_IntEntry(ptr noundef %15, i32 noundef %16)
  store i32 %17, ptr %5, align 4, !tbaa !3
  br label %18

18:                                               ; preds = %14, %9
  %19 = phi i1 [ false, %9 ], [ true, %14 ]
  br i1 %19, label %20, label %52

20:                                               ; preds = %18
  %21 = load i32, ptr %7, align 4, !tbaa !3
  %22 = add nsw i32 %21, 1
  store i32 %22, ptr %8, align 4, !tbaa !3
  br label %23

23:                                               ; preds = %45, %20
  %24 = load i32, ptr %8, align 4, !tbaa !3
  %25 = load ptr, ptr %4, align 8, !tbaa !20
  %26 = call i32 @Vec_IntSize(ptr noundef %25)
  %27 = icmp slt i32 %24, %26
  br i1 %27, label %28, label %32

28:                                               ; preds = %23
  %29 = load ptr, ptr %4, align 8, !tbaa !20
  %30 = load i32, ptr %8, align 4, !tbaa !3
  %31 = call i32 @Vec_IntEntry(ptr noundef %29, i32 noundef %30)
  store i32 %31, ptr %6, align 4, !tbaa !3
  br label %32

32:                                               ; preds = %28, %23
  %33 = phi i1 [ false, %23 ], [ true, %28 ]
  br i1 %33, label %34, label %48

34:                                               ; preds = %32
  %35 = load ptr, ptr %3, align 8, !tbaa !94
  %36 = load i32, ptr %5, align 4, !tbaa !3
  %37 = load i32, ptr %6, align 4, !tbaa !3
  %38 = call i32 @Extra_BitMatrixLookup1(ptr noundef %35, i32 noundef %36, i32 noundef %37)
  %39 = icmp ne i32 %38, 0
  br i1 %39, label %40, label %44

40:                                               ; preds = %34
  %41 = load i32, ptr %5, align 4, !tbaa !3
  %42 = load i32, ptr %6, align 4, !tbaa !3
  %43 = call i32 (ptr, ...) @printf(ptr noundef @.str, i32 noundef %41, i32 noundef %42)
  br label %44

44:                                               ; preds = %40, %34
  br label %45

45:                                               ; preds = %44
  %46 = load i32, ptr %8, align 4, !tbaa !3
  %47 = add nsw i32 %46, 1
  store i32 %47, ptr %8, align 4, !tbaa !3
  br label %23, !llvm.loop !98

48:                                               ; preds = %32
  br label %49

49:                                               ; preds = %48
  %50 = load i32, ptr %7, align 4, !tbaa !3
  %51 = add nsw i32 %50, 1
  store i32 %51, ptr %7, align 4, !tbaa !3
  br label %9, !llvm.loop !99

52:                                               ; preds = %18
  call void @llvm.lifetime.end.p0(i64 4, ptr %8) #8
  call void @llvm.lifetime.end.p0(i64 4, ptr %7) #8
  call void @llvm.lifetime.end.p0(i64 4, ptr %6) #8
  call void @llvm.lifetime.end.p0(i64 4, ptr %5) #8
  ret i32 0
}