; Function Attrs: nounwind uwtable
define noundef i32 @Sim_UtilCountPairsOnePrint(ptr noundef %0, ptr noundef readonly captures(none) %1) local_unnamed_addr #7 {
  %3 = getelementptr i8, ptr %1, i64 4
  %.val1823 = load i32, ptr %3, align 4, !tbaa !16
  %4 = icmp sgt i32 %.val1823, 0
  br i1 %4, label %.lr.ph25, label %.critedge

.lr.ph25:                                         ; preds = %2
  %5 = getelementptr i8, ptr %1, i64 8
  br label %7

.critedge2.loopexit.loopexit:                     ; preds = %17
  %.pre = sext i32 %.val to i64
  br label %.critedge2.loopexit

.critedge2.loopexit:                              ; preds = %.critedge2.loopexit.loopexit, %7
  %.pre-phi = phi i64 [ %.pre, %.critedge2.loopexit.loopexit ], [ %10, %7 ]
  %.val18 = phi i32 [ %.val, %.critedge2.loopexit.loopexit ], [ %.val1834, %7 ]
  %6 = icmp slt i64 %indvars.iv.next30, %.pre-phi
  %indvars.iv.next = add nuw nsw i64 %indvars.iv, 1
  br i1 %6, label %7, label %.critedge, !llvm.loop !88

7:                                                ; preds = %.lr.ph25, %.critedge2.loopexit
  %.val1834 = phi i32 [ %.val1823, %.lr.ph25 ], [ %.val18, %.critedge2.loopexit ]
  %indvars.iv29 = phi i64 [ 0, %.lr.ph25 ], [ %indvars.iv.next30, %.critedge2.loopexit ]
  %indvars.iv = phi i64 [ 1, %.lr.ph25 ], [ %indvars.iv.next, %.critedge2.loopexit ]
  %.val20 = load ptr, ptr %5, align 8, !tbaa !20
  %8 = getelementptr inbounds nuw i32, ptr %.val20, i64 %indvars.iv29
  %9 = load i32, ptr %8, align 4, !tbaa !14
  %indvars.iv.next30 = add nuw nsw i64 %indvars.iv29, 1
  %10 = sext i32 %.val1834 to i64
  %11 = icmp slt i64 %indvars.iv.next30, %10
  br i1 %11, label %.lr.ph, label %.critedge2.loopexit

.lr.ph:                                           ; preds = %7, %17
  %indvars.iv26 = phi i64 [ %indvars.iv.next27, %17 ], [ %indvars.iv, %7 ]
  %.val19 = load ptr, ptr %5, align 8, !tbaa !20
  %12 = getelementptr inbounds nuw i32, ptr %.val19, i64 %indvars.iv26
  %13 = load i32, ptr %12, align 4, !tbaa !14
  %14 = tail call i32 @Extra_BitMatrixLookup1(ptr noundef %0, i32 noundef %9, i32 noundef %13) #18
  %.not = icmp eq i32 %14, 0
  br i1 %.not, label %17, label %15

15:                                               ; preds = %.lr.ph
  %16 = tail call i32 (ptr, ...) @printf(ptr noundef nonnull dereferenceable(1) @.str, i32 noundef %9, i32 noundef %13)
  br label %17

17:                                               ; preds = %.lr.ph, %15
  %indvars.iv.next27 = add nuw nsw i64 %indvars.iv26, 1
  %.val = load i32, ptr %3, align 4, !tbaa !16
  %18 = trunc nuw i64 %indvars.iv.next27 to i32
  %19 = icmp sgt i32 %.val, %18
  br i1 %19, label %.lr.ph, label %.critedge2.loopexit.loopexit, !llvm.loop !89

.critedge:                                        ; preds = %.critedge2.loopexit, %2
  ret i32 0
}